; Function Attrs: mustprogress nofree norecurse nosync nounwind willreturn memory(argmem: read) uwtable
define dso_local { <2 x float>, <2 x float> } @_Z21PlaneLineIntersectionRK7btPlaneRK9btVector3S4_(ptr noundef nonnull readonly align 4 captures(none) dereferenceable(20) %0, ptr noundef nonnull readonly align 4 captures(none) dereferenceable(16) %1, ptr noundef nonnull readonly align 4 captures(none) dereferenceable(16) %2) local_unnamed_addr #0 {
  %4 = load float, ptr %2, align 4, !tbaa !4
  %5 = load float, ptr %1, align 4, !tbaa !4
  %6 = fsub float %4, %5
  %7 = getelementptr inbounds nuw i8, ptr %2, i64 4
  %8 = load float, ptr %7, align 4, !tbaa !4
  %9 = getelementptr inbounds nuw i8, ptr %1, i64 4
  %10 = load float, ptr %9, align 4, !tbaa !4
  %11 = fsub float %8, %10
  %12 = getelementptr inbounds nuw i8, ptr %2, i64 8
  %13 = load float, ptr %12, align 4, !tbaa !4
  %14 = getelementptr inbounds nuw i8, ptr %1, i64 8
  %15 = load float, ptr %14, align 4, !tbaa !4
  %16 = fsub float %13, %15
  %17 = load float, ptr %0, align 4, !tbaa !4
  %18 = getelementptr inbounds nuw i8, ptr %0, i64 4
  %19 = load float, ptr %18, align 4, !tbaa !4
  %20 = fmul float %11, %19
  %21 = tail call float @llvm.fmuladd.f32(float %17, float %6, float %20)
  %22 = getelementptr inbounds nuw i8, ptr %0, i64 8
  %23 = load float, ptr %22, align 4, !tbaa !4
  %24 = tail call noundef float @llvm.fmuladd.f32(float %23, float %16, float %21)
  %25 = getelementptr inbounds nuw i8, ptr %0, i64 16
  %26 = load float, ptr %25, align 4, !tbaa !8
  %27 = fmul float %10, %19
  %28 = tail call float @llvm.fmuladd.f32(float %17, float %5, float %27)
  %29 = tail call noundef float @llvm.fmuladd.f32(float %23, float %15, float %28)
  %30 = fadd float %26, %29
  %31 = fneg float %30
  %32 = fdiv float %31, %24
  %33 = fmul float %6, %32
  %34 = fmul float %11, %32
  %35 = fmul float %16, %32
  %36 = fadd float %5, %33
  %37 = fadd float %10, %34
  %38 = fadd float %15, %35
  %.sroa.0.0.vec.insert.i14 = insertelement <2 x float> poison, float %36, i64 0
  %.sroa.0.4.vec.insert.i15 = insertelement <2 x float> %.sroa.0.0.vec.insert.i14, float %37, i64 1
  %.sroa.3.12.vec.insert.i16 = insertelement <2 x float> <float poison, float 0.000000e+00>, float %38, i64 0
  %.fca.0.insert.i17 = insertvalue { <2 x float>, <2 x float> } poison, <2 x float> %.sroa.0.4.vec.insert.i15, 0
  %.fca.1.insert.i18 = insertvalue { <2 x float>, <2 x float> } %.fca.0.insert.i17, <2 x float> %.sroa.3.12.vec.insert.i16, 1
  ret { <2 x float>, <2 x float> } %.fca.1.insert.i18
}